; Function Attrs: nounwind uwtable
define internal void @pkey_rsa_cleanup(ptr noundef readonly captures(none) %0) #1 {
  %2 = getelementptr inbounds nuw i8, ptr %0, i64 152
  %3 = load ptr, ptr %2, align 8, !tbaa !29
  %.not = icmp eq ptr %3, null
  br i1 %.not, label %11, label %4

4:                                                ; preds = %1
  %5 = getelementptr inbounds nuw i8, ptr %3, i64 8
  %6 = load ptr, ptr %5, align 8, !tbaa !32
  tail call void @BN_free(ptr noundef %6) #9
  %7 = getelementptr inbounds nuw i8, ptr %3, i64 56
  %8 = load ptr, ptr %7, align 8, !tbaa !37
  tail call void @CRYPTO_free(ptr noundef %8, ptr noundef nonnull @.str, i32 noundef 129) #9
  %9 = getelementptr inbounds nuw i8, ptr %3, i64 64
  %10 = load ptr, ptr %9, align 8, !tbaa !35
  tail call void @CRYPTO_free(ptr noundef %10, ptr noundef nonnull @.str, i32 noundef 130) #9
  tail call void @CRYPTO_free(ptr noundef nonnull %3, ptr noundef nonnull @.str, i32 noundef 131) #9
  br label %11

11:                                               ; preds = %4, %1
  ret void
}